

Microchip MPLAB XC8 Assembler V2.05 build -831301201 
                                                                                               Sat Feb 22 14:46:21 2020

Microchip MPLAB XC8 C Compiler v2.05 (Free license) build 20181220022703 Og1 
     1                           	processor	16F877A
     2                           	opt	pw 120
     3                           	opt	flic
     4                           	psect	cinit,global,class=CODE,merge=1,delta=2
     5                           	psect	bssCOMMON,global,class=COMMON,space=1,delta=1
     6                           	psect	bssBANK0,global,class=BANK0,space=1,delta=1
     7                           	psect	cstackCOMMON,global,class=COMMON,space=1,delta=1
     8                           	psect	cstackBANK0,global,class=BANK0,space=1,delta=1
     9                           	psect	maintext,global,class=CODE,split=1,delta=2
    10                           	psect	text1,local,class=CODE,merge=1,delta=2
    11                           	psect	text2,local,class=CODE,merge=1,delta=2
    12                           	psect	text3,local,class=CODE,merge=1,delta=2
    13                           	psect	text4,local,class=CODE,merge=1,delta=2
    14                           	psect	intentry,global,class=CODE,delta=2
    15                           	dabs	1,0x7E,2
    16  0000                     
    17                           ; Version 2.05
    18                           ; Generated 20/12/2018 GMT
    19                           ; 
    20                           ; Copyright © 2018, Microchip Technology Inc. and its subsidiaries ("Microchip")
    21                           ; All rights reserved.
    22                           ; 
    23                           ; This software is developed by Microchip Technology Inc. and its subsidiaries ("Microch
      +                          ip").
    24                           ; 
    25                           ; Redistribution and use in source and binary forms, with or without modification, are
    26                           ; permitted provided that the following conditions are met:
    27                           ; 
    28                           ;     1. Redistributions of source code must retain the above copyright notice, this lis
      +                          t of
    29                           ;        conditions and the following disclaimer.
    30                           ; 
    31                           ;     2. Redistributions in binary form must reproduce the above copyright notice, this 
      +                          list
    32                           ;        of conditions and the following disclaimer in the documentation and/or other
    33                           ;        materials provided with the distribution.
    34                           ; 
    35                           ;     3. Microchip's name may not be used to endorse or promote products derived from th
      +                          is
    36                           ;        software without specific prior written permission.
    37                           ; 
    38                           ; THIS SOFTWARE IS PROVIDED BY MICROCHIP "AS IS" AND ANY EXPRESS OR IMPLIED WARRANTIES,
    39                           ; INCLUDING, BUT NOT LIMITED TO, THE IMPLIED WARRANTIES OF MERCHANTABILITY AND FITNESS F
      +                          OR
    40                           ; PURPOSE ARE DISCLAIMED.  IN NO EVENT SHALL MICROCHIP BE LIABLE FOR ANY DIRECT, INDIREC
      +                          T,
    41                           ; INCIDENTAL, SPECIAL, EXEMPLARY, OR CONSEQUENTIAL DAMAGES (INCLUDING BUT NOT LIMITED TO
    42                           ; PROCUREMENT OF SUBSTITUTE GOODS OR SERVICES; LOSS OF USE, DATA OR PROFITS; OR BUSINESS
    43                           ; INTERRUPTION) HOWSOEVER CAUSED AND ON ANY THEORY OF LIABILITY, WHETHER IN CONTRACT, ST
      +                          RICT
    44                           ; LIABILITY, OR TORT (INCLUDING NEGLIGENCE OR OTHERWISE) ARISING IN ANY WAY OUT OF THE U
      +                          SE OF
    45                           ; THIS SOFTWARE, EVEN IF ADVISED OF THE POSSIBILITY OF SUCH DAMAGE.
    46                           ; 
    47                           ; 
    48                           ; Code-generator required, PIC16F877A Definitions
    49                           ; 
    50                           ; SFR Addresses
    51  0000                     	;# 
    52  0001                     	;# 
    53  0002                     	;# 
    54  0003                     	;# 
    55  0004                     	;# 
    56  0005                     	;# 
    57  0006                     	;# 
    58  0007                     	;# 
    59  0008                     	;# 
    60  0009                     	;# 
    61  000A                     	;# 
    62  000B                     	;# 
    63  000C                     	;# 
    64  000D                     	;# 
    65  000E                     	;# 
    66  000E                     	;# 
    67  000F                     	;# 
    68  0010                     	;# 
    69  0011                     	;# 
    70  0012                     	;# 
    71  0013                     	;# 
    72  0014                     	;# 
    73  0015                     	;# 
    74  0015                     	;# 
    75  0016                     	;# 
    76  0017                     	;# 
    77  0018                     	;# 
    78  0019                     	;# 
    79  001A                     	;# 
    80  001B                     	;# 
    81  001B                     	;# 
    82  001C                     	;# 
    83  001D                     	;# 
    84  001E                     	;# 
    85  001F                     	;# 
    86  0081                     	;# 
    87  0085                     	;# 
    88  0086                     	;# 
    89  0087                     	;# 
    90  0088                     	;# 
    91  0089                     	;# 
    92  008C                     	;# 
    93  008D                     	;# 
    94  008E                     	;# 
    95  0091                     	;# 
    96  0092                     	;# 
    97  0093                     	;# 
    98  0094                     	;# 
    99  0098                     	;# 
   100  0099                     	;# 
   101  009C                     	;# 
   102  009D                     	;# 
   103  009E                     	;# 
   104  009F                     	;# 
   105  010C                     	;# 
   106  010D                     	;# 
   107  010E                     	;# 
   108  010F                     	;# 
   109  018C                     	;# 
   110  018D                     	;# 
   111  0000                     	;# 
   112  0001                     	;# 
   113  0002                     	;# 
   114  0003                     	;# 
   115  0004                     	;# 
   116  0005                     	;# 
   117  0006                     	;# 
   118  0007                     	;# 
   119  0008                     	;# 
   120  0009                     	;# 
   121  000A                     	;# 
   122  000B                     	;# 
   123  000C                     	;# 
   124  000D                     	;# 
   125  000E                     	;# 
   126  000E                     	;# 
   127  000F                     	;# 
   128  0010                     	;# 
   129  0011                     	;# 
   130  0012                     	;# 
   131  0013                     	;# 
   132  0014                     	;# 
   133  0015                     	;# 
   134  0015                     	;# 
   135  0016                     	;# 
   136  0017                     	;# 
   137  0018                     	;# 
   138  0019                     	;# 
   139  001A                     	;# 
   140  001B                     	;# 
   141  001B                     	;# 
   142  001C                     	;# 
   143  001D                     	;# 
   144  001E                     	;# 
   145  001F                     	;# 
   146  0081                     	;# 
   147  0085                     	;# 
   148  0086                     	;# 
   149  0087                     	;# 
   150  0088                     	;# 
   151  0089                     	;# 
   152  008C                     	;# 
   153  008D                     	;# 
   154  008E                     	;# 
   155  0091                     	;# 
   156  0092                     	;# 
   157  0093                     	;# 
   158  0094                     	;# 
   159  0098                     	;# 
   160  0099                     	;# 
   161  009C                     	;# 
   162  009D                     	;# 
   163  009E                     	;# 
   164  009F                     	;# 
   165  010C                     	;# 
   166  010D                     	;# 
   167  010E                     	;# 
   168  010F                     	;# 
   169  018C                     	;# 
   170  018D                     	;# 
   171  0014                     _SSPCON	set	20
   172  001F                     _ADCON0	set	31
   173  0013                     _SSPBUF	set	19
   174  0014                     _SSPCONbits	set	20
   175  000C                     _PIR1bits	set	12
   176  0007                     _PORTC	set	7
   177  001E                     _ADRESH	set	30
   178  0006                     _PORTB	set	6
   179  0063                     _SSPIF	set	99
   180  005E                     _PEIE	set	94
   181  005F                     _GIE	set	95
   182  00FA                     _GO_nDONE	set	250
   183  0091                     _SSPCON2	set	145
   184  0094                     _SSPSTAT	set	148
   185  0093                     _SSPADD	set	147
   186  009E                     _ADRESL	set	158
   187  009F                     _ADCON1	set	159
   188  0094                     _SSPSTATbits	set	148
   189  0087                     _TRISC	set	135
   190  0086                     _TRISB	set	134
   191  0085                     _TRISA	set	133
   192  0463                     _SSPIE	set	1123
   193  043C                     _TRISC4	set	1084
   194  043B                     _TRISC3	set	1083
   195  04A0                     _BF	set	1184
   196                           
   197                           ; #config settings
   198  0000                     
   199                           	psect	cinit
   200  000F                     start_initialization:	
   201  000F                     __initialization:	
   202                           
   203                           ; Clear objects allocated to COMMON
   204  000F  01F8               	clrf	__pbssCOMMON& (0+127)
   205  0010  01F9               	clrf	(__pbssCOMMON+1)& (0+127)
   206  0011  01FA               	clrf	(__pbssCOMMON+2)& (0+127)
   207                           
   208                           ; Clear objects allocated to BANK0
   209  0012  1283               	bcf	3,5	;RP0=0, select bank0
   210  0013  1303               	bcf	3,6	;RP1=0, select bank0
   211  0014  01A5               	clrf	__pbssBANK0& (0+127)
   212  0015                     end_of_initialization:	
   213                           ;End of C runtime variable initialization code
   214                           
   215  0015                     __end_of__initialization:	
   216  0015  0183               	clrf	3
   217  0016  120A  118A  286A   	ljmp	_main	;jump to C main() function
   218                           
   219                           	psect	bssCOMMON
   220  0078                     __pbssCOMMON:	
   221  0078                     _dato:	
   222  0078                     	ds	1
   223  0079                     _z:	
   224  0079                     	ds	1
   225  007A                     _recibir1:	
   226  007A                     	ds	1
   227                           
   228                           	psect	bssBANK0
   229  0025                     __pbssBANK0:	
   230  0025                     _valor_adc:	
   231  0025                     	ds	1
   232                           
   233                           	psect	cstackCOMMON
   234  0070                     __pcstackCOMMON:	
   235  0070                     ?_ADC_Init:	
   236  0070                     ?_I2C_Slave_Init:	
   237                           ; 1 bytes @ 0x0
   238                           
   239  0070                     ?_main:	
   240                           ; 1 bytes @ 0x0
   241                           
   242  0070                     ?_isr:	
   243                           ; 1 bytes @ 0x0
   244                           
   245  0070                     ??_isr:	
   246                           ; 1 bytes @ 0x0
   247                           
   248                           
   249                           ; 1 bytes @ 0x0
   250  0070                     	ds	3
   251  0073                     ??_ADC_Init:	
   252  0073                     ??_I2C_Slave_Init:	
   253                           ; 1 bytes @ 0x3
   254                           
   255  0073                     ?_ADC_Read:	
   256                           ; 1 bytes @ 0x3
   257                           
   258  0073                     I2C_Slave_Init@address:	
   259                           ; 2 bytes @ 0x3
   260                           
   261                           
   262                           ; 1 bytes @ 0x3
   263  0073                     	ds	2
   264  0075                     ??_ADC_Read:	
   265                           
   266                           ; 1 bytes @ 0x5
   267  0075                     	ds	2
   268  0077                     ADC_Read@channel:	
   269                           
   270                           ; 1 bytes @ 0x7
   271  0077                     	ds	1
   272                           
   273                           	psect	cstackBANK0
   274  0020                     __pcstackBANK0:	
   275  0020                     ??_main:	
   276                           
   277                           ; 1 bytes @ 0x0
   278  0020                     	ds	3
   279  0023                     main@a:	
   280                           
   281                           ; 2 bytes @ 0x3
   282  0023                     	ds	2
   283                           
   284                           	psect	maintext
   285  006A                     __pmaintext:	
   286 ;;
   287 ;;Main: autosize = 0, tempsize = 3, incstack = 0, save=0
   288 ;;
   289 ;; *************** function _main *****************
   290 ;; Defined at:
   291 ;;		line 41 in file "LAB_5_ESCLAVO1.c"
   292 ;; Parameters:    Size  Location     Type
   293 ;;		None
   294 ;; Auto vars:     Size  Location     Type
   295 ;;  a               2    3[BANK0 ] unsigned int 
   296 ;; Return value:  Size  Location     Type
   297 ;;                  1    wreg      void 
   298 ;; Registers used:
   299 ;;		wreg, status,2, status,0, pclath, cstack
   300 ;; Tracked objects:
   301 ;;		On entry : B00/0
   302 ;;		On exit  : 0/0
   303 ;;		Unchanged: 0/0
   304 ;; Data sizes:     COMMON   BANK0   BANK1   BANK3   BANK2
   305 ;;      Params:         0       0       0       0       0
   306 ;;      Locals:         0       2       0       0       0
   307 ;;      Temps:          0       3       0       0       0
   308 ;;      Totals:         0       5       0       0       0
   309 ;;Total ram usage:        5 bytes
   310 ;; Hardware stack levels required when called:    2
   311 ;; This function calls:
   312 ;;		_ADC_Init
   313 ;;		_ADC_Read
   314 ;;		_I2C_Slave_Init
   315 ;; This function is called by:
   316 ;;		Startup code after reset
   317 ;; This function uses a non-reentrant model
   318 ;;
   319                           
   320                           
   321                           ;psect for function _main
   322  006A                     _main:	
   323                           
   324                           ;LAB_5_ESCLAVO1.c: 43:   unsigned int a;;LAB_5_ESCLAVO1.c: 44:   TRISA = 0xFF;
   325                           
   326                           ;incstack = 0
   327                           ; Regs used in _main: [wreg+status,2+status,0+pclath+cstack]
   328  006A  30FF               	movlw	255
   329  006B  1683               	bsf	3,5	;RP0=1, select bank1
   330  006C  1303               	bcf	3,6	;RP1=0, select bank1
   331  006D  0085               	movwf	5	;volatile
   332                           
   333                           ;LAB_5_ESCLAVO1.c: 45:   TRISB = 0x00;
   334  006E  0186               	clrf	6	;volatile
   335                           
   336                           ;LAB_5_ESCLAVO1.c: 46:   TRISC = 0x00;
   337  006F  0187               	clrf	7	;volatile
   338                           
   339                           ;LAB_5_ESCLAVO1.c: 47:   ADC_Init();
   340  0070  120A  118A  20EB  120A  118A  	fcall	_ADC_Init
   341                           
   342                           ;LAB_5_ESCLAVO1.c: 48:   I2C_Slave_Init(0x50);
   343  0075  3050               	movlw	80
   344  0076  120A  118A  20D1  120A  118A  	fcall	_I2C_Slave_Init
   345  007B                     l883:	
   346                           
   347                           ;LAB_5_ESCLAVO1.c: 51:     a = ADC_Read(0);
   348  007B  3000               	movlw	0
   349  007C  120A  118A  20A1  120A  118A  	fcall	_ADC_Read
   350  0081  0874               	movf	?_ADC_Read+1,w
   351  0082  1283               	bcf	3,5	;RP0=0, select bank0
   352  0083  1303               	bcf	3,6	;RP1=0, select bank0
   353  0084  00A4               	movwf	main@a+1
   354  0085  0873               	movf	?_ADC_Read,w
   355  0086  00A3               	movwf	main@a
   356                           
   357                           ;LAB_5_ESCLAVO1.c: 52:     PORTB = ADRESH;
   358  0087  081E               	movf	30,w	;volatile
   359  0088  0086               	movwf	6	;volatile
   360                           
   361                           ;LAB_5_ESCLAVO1.c: 53:     PORTC = a>>8;
   362  0089  0824               	movf	main@a+1,w
   363  008A  0087               	movwf	7	;volatile
   364                           
   365                           ;LAB_5_ESCLAVO1.c: 54:     _delay((unsigned long)((100)*(8000000/4000.0)));
   366  008B  3002               	movlw	2
   367  008C  1283               	bcf	3,5	;RP0=0, select bank0
   368  008D  1303               	bcf	3,6	;RP1=0, select bank0
   369  008E  00A2               	movwf	??_main+2
   370  008F  3004               	movlw	4
   371  0090  00A1               	movwf	??_main+1
   372  0091  30B9               	movlw	185
   373  0092  00A0               	movwf	??_main
   374  0093                     u257:	
   375  0093  0BA0               	decfsz	??_main,f
   376  0094  2893               	goto	u257
   377  0095  0BA1               	decfsz	??_main+1,f
   378  0096  2893               	goto	u257
   379  0097  0BA2               	decfsz	??_main+2,f
   380  0098  2893               	goto	u257
   381  0099  289A               	nop2
   382                           
   383                           ;LAB_5_ESCLAVO1.c: 55:     valor_adc = PORTB;
   384  009A  1283               	bcf	3,5	;RP0=0, select bank0
   385  009B  1303               	bcf	3,6	;RP1=0, select bank0
   386  009C  0806               	movf	6,w	;volatile
   387  009D  00A0               	movwf	??_main
   388  009E  0820               	movf	??_main,w
   389  009F  00A5               	movwf	_valor_adc
   390  00A0  287B               	goto	l883
   391  00A1                     __end_of_main:	
   392                           
   393                           	psect	text1
   394  00D1                     __ptext1:	
   395 ;; *************** function _I2C_Slave_Init *****************
   396 ;; Defined at:
   397 ;;		line 116 in file "LAB_5_ESCLAVO1.c"
   398 ;; Parameters:    Size  Location     Type
   399 ;;  address         1    wreg     unsigned char 
   400 ;; Auto vars:     Size  Location     Type
   401 ;;  address         1    3[COMMON] unsigned char 
   402 ;; Return value:  Size  Location     Type
   403 ;;                  1    wreg      void 
   404 ;; Registers used:
   405 ;;		wreg
   406 ;; Tracked objects:
   407 ;;		On entry : 0/0
   408 ;;		On exit  : 0/0
   409 ;;		Unchanged: 0/0
   410 ;; Data sizes:     COMMON   BANK0   BANK1   BANK3   BANK2
   411 ;;      Params:         0       0       0       0       0
   412 ;;      Locals:         1       0       0       0       0
   413 ;;      Temps:          0       0       0       0       0
   414 ;;      Totals:         1       0       0       0       0
   415 ;;Total ram usage:        1 bytes
   416 ;; Hardware stack levels used:    1
   417 ;; Hardware stack levels required when called:    1
   418 ;; This function calls:
   419 ;;		Nothing
   420 ;; This function is called by:
   421 ;;		_main
   422 ;; This function uses a non-reentrant model
   423 ;;
   424                           
   425                           
   426                           ;psect for function _I2C_Slave_Init
   427  00D1                     _I2C_Slave_Init:	
   428                           
   429                           ;incstack = 0
   430                           ; Regs used in _I2C_Slave_Init: [wreg]
   431                           ;I2C_Slave_Init@address stored from wreg
   432  00D1  00F3               	movwf	I2C_Slave_Init@address
   433                           
   434                           ;LAB_5_ESCLAVO1.c: 116: void I2C_Slave_Init(uint8_t address);LAB_5_ESCLAVO1.c: 117: {;LA
      +                          B_5_ESCLAVO1.c: 118:     SSPADD = address;
   435  00D2  0873               	movf	I2C_Slave_Init@address,w
   436  00D3  1683               	bsf	3,5	;RP0=1, select bank1
   437  00D4  1303               	bcf	3,6	;RP1=0, select bank1
   438  00D5  0093               	movwf	19	;volatile
   439                           
   440                           ;LAB_5_ESCLAVO1.c: 119:     SSPCON = 0x36;
   441  00D6  3036               	movlw	54
   442  00D7  1283               	bcf	3,5	;RP0=0, select bank0
   443  00D8  1303               	bcf	3,6	;RP1=0, select bank0
   444  00D9  0094               	movwf	20	;volatile
   445                           
   446                           ;LAB_5_ESCLAVO1.c: 120:     SSPSTAT = 0x80;
   447  00DA  3080               	movlw	128
   448  00DB  1683               	bsf	3,5	;RP0=1, select bank1
   449  00DC  1303               	bcf	3,6	;RP1=0, select bank1
   450  00DD  0094               	movwf	20	;volatile
   451                           
   452                           ;LAB_5_ESCLAVO1.c: 121:     SSPCON2 = 0x01;
   453  00DE  3001               	movlw	1
   454  00DF  0091               	movwf	17	;volatile
   455                           
   456                           ;LAB_5_ESCLAVO1.c: 122:     TRISC3 = 1;
   457  00E0  1587               	bsf	7,3	;volatile
   458                           
   459                           ;LAB_5_ESCLAVO1.c: 123:     TRISC4 = 1;
   460  00E1  1607               	bsf	7,4	;volatile
   461                           
   462                           ;LAB_5_ESCLAVO1.c: 124:     GIE = 1;
   463  00E2  178B               	bsf	11,7	;volatile
   464                           
   465                           ;LAB_5_ESCLAVO1.c: 125:     PEIE = 1;
   466  00E3  170B               	bsf	11,6	;volatile
   467                           
   468                           ;LAB_5_ESCLAVO1.c: 126:     SSPIF = 0;
   469  00E4  1283               	bcf	3,5	;RP0=0, select bank0
   470  00E5  1303               	bcf	3,6	;RP1=0, select bank0
   471  00E6  118C               	bcf	12,3	;volatile
   472                           
   473                           ;LAB_5_ESCLAVO1.c: 127:     SSPIE = 1;
   474  00E7  1683               	bsf	3,5	;RP0=1, select bank1
   475  00E8  1303               	bcf	3,6	;RP1=0, select bank1
   476  00E9  158C               	bsf	12,3	;volatile
   477  00EA  0008               	return
   478  00EB                     __end_of_I2C_Slave_Init:	
   479                           
   480                           	psect	text2
   481  00A1                     __ptext2:	
   482 ;; *************** function _ADC_Read *****************
   483 ;; Defined at:
   484 ;;		line 103 in file "LAB_5_ESCLAVO1.c"
   485 ;; Parameters:    Size  Location     Type
   486 ;;  channel         1    wreg     unsigned char 
   487 ;; Auto vars:     Size  Location     Type
   488 ;;  channel         1    7[COMMON] unsigned char 
   489 ;; Return value:  Size  Location     Type
   490 ;;                  2    3[COMMON] unsigned int 
   491 ;; Registers used:
   492 ;;		wreg, status,2, status,0
   493 ;; Tracked objects:
   494 ;;		On entry : 0/0
   495 ;;		On exit  : 0/0
   496 ;;		Unchanged: 0/0
   497 ;; Data sizes:     COMMON   BANK0   BANK1   BANK3   BANK2
   498 ;;      Params:         2       0       0       0       0
   499 ;;      Locals:         1       0       0       0       0
   500 ;;      Temps:          2       0       0       0       0
   501 ;;      Totals:         5       0       0       0       0
   502 ;;Total ram usage:        5 bytes
   503 ;; Hardware stack levels used:    1
   504 ;; Hardware stack levels required when called:    1
   505 ;; This function calls:
   506 ;;		Nothing
   507 ;; This function is called by:
   508 ;;		_main
   509 ;; This function uses a non-reentrant model
   510 ;;
   511                           
   512                           
   513                           ;psect for function _ADC_Read
   514  00A1                     _ADC_Read:	
   515                           
   516                           ;incstack = 0
   517                           ; Regs used in _ADC_Read: [wreg+status,2+status,0]
   518                           ;ADC_Read@channel stored from wreg
   519  00A1  00F7               	movwf	ADC_Read@channel
   520                           
   521                           ;LAB_5_ESCLAVO1.c: 103: unsigned int ADC_Read(unsigned char channel);LAB_5_ESCLAVO1.c: 1
      +                          04: {;LAB_5_ESCLAVO1.c: 105:   if(channel > 7)
   522  00A2  3008               	movlw	8
   523  00A3  0277               	subwf	ADC_Read@channel,w
   524  00A4  1C03               	skipc
   525  00A5  28A9               	goto	l809
   526                           
   527                           ;LAB_5_ESCLAVO1.c: 106:     return 0;
   528  00A6  01F3               	clrf	?_ADC_Read
   529  00A7  01F4               	clrf	?_ADC_Read+1
   530  00A8  0008               	return
   531  00A9                     l809:	
   532                           
   533                           ;LAB_5_ESCLAVO1.c: 108:   ADCON0 &= 0xC5;
   534  00A9  30C5               	movlw	197
   535  00AA  00F5               	movwf	??_ADC_Read
   536  00AB  0875               	movf	??_ADC_Read,w
   537  00AC  1283               	bcf	3,5	;RP0=0, select bank0
   538  00AD  1303               	bcf	3,6	;RP1=0, select bank0
   539  00AE  059F               	andwf	31,f	;volatile
   540                           
   541                           ;LAB_5_ESCLAVO1.c: 109:   ADCON0 |= channel<<3;
   542  00AF  0877               	movf	ADC_Read@channel,w	;volatile
   543  00B0  00F5               	movwf	??_ADC_Read
   544  00B1  3002               	movlw	2
   545  00B2                     u145:	
   546  00B2  1003               	clrc
   547  00B3  0DF5               	rlf	??_ADC_Read,f
   548  00B4  3EFF               	addlw	-1
   549  00B5  1D03               	skipz
   550  00B6  28B2               	goto	u145
   551  00B7  1003               	clrc
   552  00B8  0D75               	rlf	??_ADC_Read,w
   553  00B9  00F6               	movwf	??_ADC_Read+1
   554  00BA  0876               	movf	??_ADC_Read+1,w
   555  00BB  049F               	iorwf	31,f	;volatile
   556                           
   557                           ;LAB_5_ESCLAVO1.c: 110:   _delay((unsigned long)((2)*(8000000/4000.0)));
   558  00BC  3006               	movlw	6
   559  00BD  00F6               	movwf	??_ADC_Read+1
   560  00BE  3030               	movlw	48
   561  00BF  00F5               	movwf	??_ADC_Read
   562  00C0                     u267:	
   563  00C0  0BF5               	decfsz	??_ADC_Read,f
   564  00C1  28C0               	goto	u267
   565  00C2  0BF6               	decfsz	??_ADC_Read+1,f
   566  00C3  28C0               	goto	u267
   567  00C4  0000               	nop
   568                           
   569                           ;LAB_5_ESCLAVO1.c: 111:   GO_nDONE = 1;
   570  00C5  1283               	bcf	3,5	;RP0=0, select bank0
   571  00C6  1303               	bcf	3,6	;RP1=0, select bank0
   572  00C7  151F               	bsf	31,2	;volatile
   573  00C8                     l100:	
   574                           ;LAB_5_ESCLAVO1.c: 112:   while(GO_nDONE);
   575                           
   576  00C8  191F               	btfsc	31,2	;volatile
   577  00C9  28C8               	goto	l100
   578                           
   579                           ;LAB_5_ESCLAVO1.c: 113:   return ((ADRESH<<8)+ADRESL);
   580  00CA  081E               	movf	30,w	;volatile
   581  00CB  00F4               	movwf	?_ADC_Read+1
   582  00CC  1683               	bsf	3,5	;RP0=1, select bank1
   583  00CD  1303               	bcf	3,6	;RP1=0, select bank1
   584  00CE  081E               	movf	30,w	;volatile
   585  00CF  00F3               	movwf	?_ADC_Read
   586  00D0  0008               	return
   587  00D1                     __end_of_ADC_Read:	
   588                           
   589                           	psect	text3
   590  00EB                     __ptext3:	
   591 ;; *************** function _ADC_Init *****************
   592 ;; Defined at:
   593 ;;		line 97 in file "LAB_5_ESCLAVO1.c"
   594 ;; Parameters:    Size  Location     Type
   595 ;;		None
   596 ;; Auto vars:     Size  Location     Type
   597 ;;		None
   598 ;; Return value:  Size  Location     Type
   599 ;;                  1    wreg      void 
   600 ;; Registers used:
   601 ;;		wreg, status,2
   602 ;; Tracked objects:
   603 ;;		On entry : 0/0
   604 ;;		On exit  : 0/0
   605 ;;		Unchanged: 0/0
   606 ;; Data sizes:     COMMON   BANK0   BANK1   BANK3   BANK2
   607 ;;      Params:         0       0       0       0       0
   608 ;;      Locals:         0       0       0       0       0
   609 ;;      Temps:          0       0       0       0       0
   610 ;;      Totals:         0       0       0       0       0
   611 ;;Total ram usage:        0 bytes
   612 ;; Hardware stack levels used:    1
   613 ;; Hardware stack levels required when called:    1
   614 ;; This function calls:
   615 ;;		Nothing
   616 ;; This function is called by:
   617 ;;		_main
   618 ;; This function uses a non-reentrant model
   619 ;;
   620                           
   621                           
   622                           ;psect for function _ADC_Init
   623  00EB                     _ADC_Init:	
   624                           
   625                           ;LAB_5_ESCLAVO1.c: 99:   ADCON0 = 0x81;
   626                           
   627                           ;incstack = 0
   628                           ; Regs used in _ADC_Init: [wreg+status,2]
   629  00EB  3081               	movlw	129
   630  00EC  1283               	bcf	3,5	;RP0=0, select bank0
   631  00ED  1303               	bcf	3,6	;RP1=0, select bank0
   632  00EE  009F               	movwf	31	;volatile
   633                           
   634                           ;LAB_5_ESCLAVO1.c: 100:   ADCON1 = 0x00;
   635  00EF  1683               	bsf	3,5	;RP0=1, select bank1
   636  00F0  1303               	bcf	3,6	;RP1=0, select bank1
   637  00F1  019F               	clrf	31	;volatile
   638  00F2  0008               	return
   639  00F3                     __end_of_ADC_Init:	
   640                           
   641                           	psect	text4
   642  0019                     __ptext4:	
   643 ;; *************** function _isr *****************
   644 ;; Defined at:
   645 ;;		line 61 in file "LAB_5_ESCLAVO1.c"
   646 ;; Parameters:    Size  Location     Type
   647 ;;		None
   648 ;; Auto vars:     Size  Location     Type
   649 ;;		None
   650 ;; Return value:  Size  Location     Type
   651 ;;                  1    wreg      void 
   652 ;; Registers used:
   653 ;;		wreg
   654 ;; Tracked objects:
   655 ;;		On entry : 0/0
   656 ;;		On exit  : 0/0
   657 ;;		Unchanged: 0/0
   658 ;; Data sizes:     COMMON   BANK0   BANK1   BANK3   BANK2
   659 ;;      Params:         0       0       0       0       0
   660 ;;      Locals:         0       0       0       0       0
   661 ;;      Temps:          3       0       0       0       0
   662 ;;      Totals:         3       0       0       0       0
   663 ;;Total ram usage:        3 bytes
   664 ;; Hardware stack levels used:    1
   665 ;; This function calls:
   666 ;;		Nothing
   667 ;; This function is called by:
   668 ;;		Interrupt level 1
   669 ;; This function uses a non-reentrant model
   670 ;;
   671                           
   672                           
   673                           ;psect for function _isr
   674  0019                     _isr:	
   675                           
   676                           ;LAB_5_ESCLAVO1.c: 62:    if(PIR1bits.SSPIF == 1){
   677  0019  1283               	bcf	3,5	;RP0=0, select bank0
   678  001A  1303               	bcf	3,6	;RP1=0, select bank0
   679  001B  1D8C               	btfss	12,3	;volatile
   680  001C  2863               	goto	i1l92
   681                           
   682                           ;LAB_5_ESCLAVO1.c: 64:         SSPCONbits.CKP = 0;
   683  001D  1214               	bcf	20,4	;volatile
   684                           
   685                           ;LAB_5_ESCLAVO1.c: 66:         if ((SSPCONbits.SSPOV) || (SSPCONbits.WCOL)){
   686  001E  1B14               	btfsc	20,6	;volatile
   687  001F  2822               	goto	i1l845
   688  0020  1F94               	btfss	20,7	;volatile
   689  0021  2829               	goto	i1l853
   690  0022                     i1l845:	
   691                           
   692                           ;LAB_5_ESCLAVO1.c: 67:             z = SSPBUF;
   693  0022  0813               	movf	19,w	;volatile
   694  0023  00F0               	movwf	??_isr
   695  0024  0870               	movf	??_isr,w
   696  0025  00F9               	movwf	_z
   697                           
   698                           ;LAB_5_ESCLAVO1.c: 68:             SSPCONbits.SSPOV = 0;
   699  0026  1314               	bcf	20,6	;volatile
   700                           
   701                           ;LAB_5_ESCLAVO1.c: 69:             SSPCONbits.WCOL = 0;
   702  0027  1394               	bcf	20,7	;volatile
   703                           
   704                           ;LAB_5_ESCLAVO1.c: 70:             SSPCONbits.CKP = 1;
   705  0028  1614               	bsf	20,4	;volatile
   706  0029                     i1l853:	
   707                           
   708                           ;LAB_5_ESCLAVO1.c: 73:         if(!SSPSTATbits.D_nA && !SSPSTATbits.R_nW) {
   709  0029  1683               	bsf	3,5	;RP0=1, select bank1
   710  002A  1303               	bcf	3,6	;RP1=0, select bank1
   711  002B  1E94               	btfss	20,5	;volatile
   712  002C  1914               	btfsc	20,2	;volatile
   713  002D  2846               	goto	i1l83
   714                           
   715                           ;LAB_5_ESCLAVO1.c: 75:             z = SSPBUF;
   716  002E  1283               	bcf	3,5	;RP0=0, select bank0
   717  002F  1303               	bcf	3,6	;RP1=0, select bank0
   718  0030  0813               	movf	19,w	;volatile
   719  0031  00F0               	movwf	??_isr
   720  0032  0870               	movf	??_isr,w
   721  0033  00F9               	movwf	_z
   722                           
   723                           ;LAB_5_ESCLAVO1.c: 77:             PIR1bits.SSPIF = 0;
   724  0034  118C               	bcf	12,3	;volatile
   725                           
   726                           ;LAB_5_ESCLAVO1.c: 78:             SSPCONbits.CKP = 1;
   727  0035  1614               	bsf	20,4	;volatile
   728  0036                     i1l84:	
   729                           ;LAB_5_ESCLAVO1.c: 79:             while(!SSPSTATbits.BF);
   730                           
   731  0036  1683               	bsf	3,5	;RP0=1, select bank1
   732  0037  1303               	bcf	3,6	;RP1=0, select bank1
   733  0038  1C14               	btfss	20,0	;volatile
   734  0039  2836               	goto	i1l84
   735                           
   736                           ;LAB_5_ESCLAVO1.c: 80:             recibir1 = SSPBUF;
   737  003A  1283               	bcf	3,5	;RP0=0, select bank0
   738  003B  1303               	bcf	3,6	;RP1=0, select bank0
   739  003C  0813               	movf	19,w	;volatile
   740  003D  00F0               	movwf	??_isr
   741  003E  0870               	movf	??_isr,w
   742  003F  00FA               	movwf	_recibir1
   743                           
   744                           ;LAB_5_ESCLAVO1.c: 81:             _delay((unsigned long)((250)*(8000000/4000000.0)));
   745  0040  30A6               	movlw	166
   746  0041  00F0               	movwf	??_isr
   747  0042                     u27_27:	
   748  0042  0BF0               	decfsz	??_isr,f
   749  0043  2842               	goto	u27_27
   750  0044  0000               	nop
   751                           
   752                           ;LAB_5_ESCLAVO1.c: 83:         }else if(!SSPSTATbits.D_nA && SSPSTATbits.R_nW){
   753  0045  2860               	goto	i1l87
   754  0046                     i1l83:	
   755  0046  1E94               	btfss	20,5	;volatile
   756  0047  1D14               	btfss	20,2	;volatile
   757  0048  2860               	goto	i1l87
   758                           
   759                           ;LAB_5_ESCLAVO1.c: 84:             z = SSPBUF;
   760  0049  1283               	bcf	3,5	;RP0=0, select bank0
   761  004A  1303               	bcf	3,6	;RP1=0, select bank0
   762  004B  0813               	movf	19,w	;volatile
   763  004C  00F0               	movwf	??_isr
   764  004D  0870               	movf	??_isr,w
   765  004E  00F9               	movwf	_z
   766                           
   767                           ;LAB_5_ESCLAVO1.c: 85:             BF = 0;
   768  004F  1683               	bsf	3,5	;RP0=1, select bank1
   769  0050  1303               	bcf	3,6	;RP1=0, select bank1
   770  0051  1014               	bcf	20,0	;volatile
   771                           
   772                           ;LAB_5_ESCLAVO1.c: 86:             SSPBUF = valor_adc;
   773  0052  1283               	bcf	3,5	;RP0=0, select bank0
   774  0053  1303               	bcf	3,6	;RP1=0, select bank0
   775  0054  0825               	movf	_valor_adc,w
   776  0055  0093               	movwf	19	;volatile
   777                           
   778                           ;LAB_5_ESCLAVO1.c: 87:             SSPCONbits.CKP = 1;
   779  0056  1614               	bsf	20,4	;volatile
   780                           
   781                           ;LAB_5_ESCLAVO1.c: 88:             _delay((unsigned long)((250)*(8000000/4000000.0)));
   782  0057  30A6               	movlw	166
   783  0058  00F0               	movwf	??_isr
   784  0059                     u28_27:	
   785  0059  0BF0               	decfsz	??_isr,f
   786  005A  2859               	goto	u28_27
   787  005B  0000               	nop
   788  005C                     i1l89:	
   789                           ;LAB_5_ESCLAVO1.c: 89:             while(SSPSTATbits.BF);
   790                           
   791  005C  1683               	bsf	3,5	;RP0=1, select bank1
   792  005D  1303               	bcf	3,6	;RP1=0, select bank1
   793  005E  1814               	btfsc	20,0	;volatile
   794  005F  285C               	goto	i1l89
   795  0060                     i1l87:	
   796                           
   797                           ;LAB_5_ESCLAVO1.c: 92:         PIR1bits.SSPIF = 0;
   798  0060  1283               	bcf	3,5	;RP0=0, select bank0
   799  0061  1303               	bcf	3,6	;RP1=0, select bank0
   800  0062  118C               	bcf	12,3	;volatile
   801  0063                     i1l92:	
   802  0063  0872               	movf	??_isr+2,w
   803  0064  008A               	movwf	10
   804  0065  0E71               	swapf	(??_isr+1)^(0+4294967168),w
   805  0066  0083               	movwf	3
   806  0067  0EFE               	swapf	126,f
   807  0068  0E7E               	swapf	126,w
   808  0069  0009               	retfie
   809  006A                     __end_of_isr:	
   810  007E                     btemp	set	126	;btemp
   811  007E                     wtemp0	set	126
   812                           
   813                           	psect	intentry
   814  0004                     __pintentry:	
   815                           ;incstack = 0
   816                           ; Regs used in _isr: [wreg]
   817                           
   818  0004                     interrupt_function:	
   819  007E                     saved_w	set	btemp
   820  0004  00FE               	movwf	btemp
   821  0005  0E03               	swapf	3,w
   822  0006  00F1               	movwf	??_isr+1
   823  0007  080A               	movf	10,w
   824  0008  00F2               	movwf	??_isr+2
   825  0009  120A  118A  2819   	ljmp	_isr


Data Sizes:
    Strings     0
    Constant    0
    Data        0
    BSS         4
    Persistent  0
    Stack       0

Auto Spaces:
    Space          Size  Autos    Used
    COMMON           14      8      11
    BANK0            80      5       6
    BANK1            80      0       0
    BANK3            96      0       0
    BANK2            96      0       0

Pointer List with Targets:

    None.

Critical Paths under _main in COMMON

    _main->_ADC_Read

Critical Paths under _isr in COMMON

    None.

Critical Paths under _main in BANK0

    None.

Critical Paths under _isr in BANK0

    None.

Critical Paths under _main in BANK1

    None.

Critical Paths under _isr in BANK1

    None.

Critical Paths under _main in BANK3

    None.

Critical Paths under _isr in BANK3

    None.

Critical Paths under _main in BANK2

    None.

Critical Paths under _isr in BANK2

    None.

Call Graph Tables:

 ---------------------------------------------------------------------------------
 (Depth) Function   	        Calls       Base Space   Used Autos Params    Refs
 ---------------------------------------------------------------------------------
 (0) _main                                                 5     5      0     100
                                              0 BANK0      5     5      0
                           _ADC_Init
                           _ADC_Read
                     _I2C_Slave_Init
 ---------------------------------------------------------------------------------
 (1) _I2C_Slave_Init                                       1     1      0      22
                                              3 COMMON     1     1      0
 ---------------------------------------------------------------------------------
 (1) _ADC_Read                                             5     3      2      44
                                              3 COMMON     5     3      2
 ---------------------------------------------------------------------------------
 (1) _ADC_Init                                             0     0      0       0
 ---------------------------------------------------------------------------------
 Estimated maximum stack depth 1
 ---------------------------------------------------------------------------------
 (Depth) Function   	        Calls       Base Space   Used Autos Params    Refs
 ---------------------------------------------------------------------------------
 (2) _isr                                                  3     3      0       0
                                              0 COMMON     3     3      0
 ---------------------------------------------------------------------------------
 Estimated maximum stack depth 2
 ---------------------------------------------------------------------------------

 Call Graph Graphs:

 _main (ROOT)
   _ADC_Init
   _ADC_Read
   _I2C_Slave_Init

 _isr (ROOT)

 Address spaces:
Name               Size   Autos  Total    Cost      Usage
BITCOMMON            E      0       0       0        0.0%
EEDATA             100      0       0       0        0.0%
NULL                 0      0       0       0        0.0%
CODE                 0      0       0       0        0.0%
COMMON               E      8       B       1       78.6%
BITSFR0              0      0       0       1        0.0%
SFR0                 0      0       0       1        0.0%
BITSFR1              0      0       0       2        0.0%
SFR1                 0      0       0       2        0.0%
STACK                0      0       0       2        0.0%
ABS                  0      0      11       3        0.0%
BITBANK0            50      0       0       4        0.0%
BITSFR3              0      0       0       4        0.0%
SFR3                 0      0       0       4        0.0%
BANK0               50      5       6       5        7.5%
BITSFR2              0      0       0       5        0.0%
SFR2                 0      0       0       5        0.0%
BITBANK1            50      0       0       6        0.0%
BANK1               50      0       0       7        0.0%
BITBANK3            60      0       0       8        0.0%
BANK3               60      0       0       9        0.0%
BITBANK2            60      0       0      10        0.0%
BANK2               60      0       0      11        0.0%
DATA                 0      0      11      12        0.0%


Microchip Technology PIC Macro Assembler V2.05 build -831301201 
Symbol Table                                                                                   Sat Feb 22 14:46:21 2020

                      _z 0079              __CFG_CP$OFF 0000              _SSPSTATbits 0094  
                     _BF 04A0                      l100 00C8                      l809 00A9  
                    l883 007B                      _GIE 005F                      u145 00B2  
                    u257 0093             __CFG_CPD$OFF 0000                      u267 00C0  
                    _isr 0019             __CFG_FOSC$HS 0000             __CFG_LVP$OFF 0000  
                   ?_isr 0070                     _PEIE 005E                     i1l83 0046  
                   i1l84 0036                     i1l92 0063                     i1l87 0060  
                   i1l89 005C             __CFG_WRT$OFF 0000                     _dato 0078  
                   _main 006A                     btemp 007E         __end_of_ADC_Init 00F3  
       __end_of_ADC_Read 00D1                     start 000C                    ??_isr 0070  
                  ?_main 0070            __CFG_WDTE$OFF 0000                    i1l853 0029  
                  i1l845 0022                    _PORTB 0006                    _PORTC 0007  
                  u27_27 0042                    u28_27 0059                    _TRISA 0085  
                  _TRISB 0086                    _TRISC 0087                    _SSPIE 0463  
                  _SSPIF 0063                    main@a 0023           __CFG_BOREN$OFF 0000  
                  pclath 000A                    status 0003                    wtemp0 007E  
        __initialization 000F             __end_of_main 00A1                   ??_main 0020  
                 _ADCON0 001F                   _ADCON1 009F                   _ADRESH 001E  
                 _ADRESL 009E                   _SSPADD 0093                   _TRISC3 043B  
                 _TRISC4 043C                   _SSPBUF 0013                   _SSPCON 0014  
         __CFG_PWRTE$OFF 0000          ADC_Read@channel 0077                ?_ADC_Init 0070  
              ?_ADC_Read 0073                   saved_w 007E  __end_of__initialization 0015  
         __pcstackCOMMON 0070  __size_of_I2C_Slave_Init 001A               ??_ADC_Init 0073  
             ??_ADC_Read 0075    I2C_Slave_Init@address 0073               __pbssBANK0 0025  
             __pmaintext 006A               __pintentry 0004                  _SSPCON2 0091  
                _SSPSTAT 0094                  __ptext1 00D1                  __ptext2 00A1  
                __ptext3 00EB                  __ptext4 0019             __size_of_isr 0051  
   end_of_initialization 0015           _I2C_Slave_Init 00D1        __size_of_ADC_Init 0008  
      __size_of_ADC_Read 0030   __end_of_I2C_Slave_Init 00EB      start_initialization 000F  
            __end_of_isr 006A          ?_I2C_Slave_Init 0070              __pbssCOMMON 0078  
              ___latbits 0002            __pcstackBANK0 0020                 _ADC_Init 00EB  
               _ADC_Read 00A1        interrupt_function 0004                 _PIR1bits 000C  
               _GO_nDONE 00FA                _valor_adc 0025         ??_I2C_Slave_Init 0073  
          __size_of_main 0037                 _recibir1 007A                 intlevel1 0000  
             _SSPCONbits 0014  
